target datalayout = "e-m:e-p270:32:32-p271:32:32-p272:64:64-i64:64-i128:128-f80:128-n8:16:32:64-S128"
target triple = "x86_64-pc-linux-gnu"

%struct.H5O_link_t = type { i32, i8, i64, i32, ptr, %union.anon }
%union.anon = type { %struct.H5O_link_ud_t }
%struct.H5O_link_ud_t = type { ptr, i64 }
%struct.H5O_link_soft_t = type { ptr }

; Function Attrs: nounwind uwtable
define internal i64 @H5O__link_size(ptr noundef %0, i1 noundef zeroext %1, ptr noundef %2) #0 {
  %4 = alloca ptr, align 8
  %5 = alloca i8, align 1
  %6 = alloca ptr, align 8
  %7 = alloca ptr, align 8
  %8 = alloca i64, align 8
  %9 = alloca i64, align 8
  %10 = alloca i64, align 8
  store ptr %0, ptr %4, align 8
  %11 = zext i1 %1 to i8
  store i8 %11, ptr %5, align 1
  store ptr %2, ptr %6, align 8
  %12 = load ptr, ptr %6, align 8
  store ptr %12, ptr %7, align 8
  store i64 0, ptr %10, align 8
  %13 = load ptr, ptr %7, align 8
  %14 = getelementptr inbounds %struct.H5O_link_t, ptr %13, i32 0, i32 4
  %15 = load ptr, ptr %14, align 8
  %16 = call i64 @strlen(ptr noundef %15) #7
  store i64 %16, ptr %8, align 8
  %17 = load i64, ptr %8, align 8
  %18 = icmp ugt i64 %17, 4294967295
  br i1 %18, label %19, label %20

19:                                               ; preds = %3
  store i64 8, ptr %9, align 8
  br label %31

20:                                               ; preds = %3
  %21 = load i64, ptr %8, align 8
  %22 = icmp ugt i64 %21, 65535
  br i1 %22, label %23, label %24

23:                                               ; preds = %20
  store i64 4, ptr %9, align 8
  br label %30

24:                                               ; preds = %20
  %25 = load i64, ptr %8, align 8
  %26 = icmp ugt i64 %25, 255
  br i1 %26, label %27, label %28

27:                                               ; preds = %24
  store i64 2, ptr %9, align 8
  br label %29

28:                                               ; preds = %24
  store i64 1, ptr %9, align 8
  br label %29

29:                                               ; preds = %28, %27
  br label %30

30:                                               ; preds = %29, %23
  br label %31

31:                                               ; preds = %30, %19
  %32 = load ptr, ptr %7, align 8
  %33 = getelementptr inbounds %struct.H5O_link_t, ptr %32, i32 0, i32 0
  %34 = load i32, ptr %33, align 8
  %35 = icmp ne i32 %34, 0
  %36 = select i1 %35, i64 1, i64 0
  %37 = add i64 2, %36
  %38 = load ptr, ptr %7, align 8
  %39 = getelementptr inbounds %struct.H5O_link_t, ptr %38, i32 0, i32 1
  %40 = load i8, ptr %39, align 4
  %41 = trunc i8 %40 to i1
  %42 = select i1 %41, i32 8, i32 0
  %43 = sext i32 %42 to i64
  %44 = add i64 %37, %43
  %45 = load ptr, ptr %7, align 8
  %46 = getelementptr inbounds %struct.H5O_link_t, ptr %45, i32 0, i32 3
  %47 = load i32, ptr %46, align 8
  %48 = icmp ne i32 %47, 0
  %49 = select i1 %48, i32 1, i32 0
  %50 = sext i32 %49 to i64
  %51 = add i64 %44, %50
  %52 = load i64, ptr %9, align 8
  %53 = add i64 %51, %52
  %54 = load i64, ptr %8, align 8
  %55 = add i64 %53, %54
  store i64 %55, ptr %10, align 8
  %56 = load ptr, ptr %7, align 8
  %57 = getelementptr inbounds %struct.H5O_link_t, ptr %56, i32 0, i32 0
  %58 = load i32, ptr %57, align 8
  switch i32 %58, label %75 [
    i32 0, label %59
    i32 1, label %65
    i32 -1, label %74
    i32 64, label %74
    i32 255, label %74
  ]

59:                                               ; preds = %31
  %60 = load ptr, ptr %4, align 8
  %61 = call zeroext i8 @H5F_sizeof_addr(ptr noundef %60)
  %62 = zext i8 %61 to i64
  %63 = load i64, ptr %10, align 8
  %64 = add i64 %63, %62
  store i64 %64, ptr %10, align 8
  br label %83

65:                                               ; preds = %31
  %66 = load ptr, ptr %7, align 8
  %67 = getelementptr inbounds %struct.H5O_link_t, ptr %66, i32 0, i32 5
  %68 = getelementptr inbounds %struct.H5O_link_soft_t, ptr %67, i32 0, i32 0
  %69 = load ptr, ptr %68, align 8
  %70 = call i64 @strlen(ptr noundef %69) #7
  %71 = add i64 2, %70
  %72 = load i64, ptr %10, align 8
  %73 = add i64 %72, %71
  store i64 %73, ptr %10, align 8
  br label %83

74:                                               ; preds = %31, %31, %31
  br label %75

75:                                               ; preds = %74, %31
  %76 = load ptr, ptr %7, align 8
  %77 = getelementptr inbounds %struct.H5O_link_t, ptr %76, i32 0, i32 5
  %78 = getelementptr inbounds %struct.H5O_link_ud_t, ptr %77, i32 0, i32 1
  %79 = load i64, ptr %78, align 8
  %80 = add i64 2, %79
  %81 = load i64, ptr %10, align 8
  %82 = add i64 %81, %80
  store i64 %82, ptr %10, align 8
  br label %83

83:                                               ; preds = %75, %65, %59
  %84 = load i64, ptr %10, align 8
  ret i64 %84
}