; Function Attrs: nounwind uwtable
define internal i64 @H5O__link_size(ptr noundef %0, i1 zeroext %1, ptr nocapture noundef readonly %2) #0 {
  %4 = getelementptr inbounds i8, ptr %2, i64 24
  %5 = load ptr, ptr %4, align 8
  %6 = tail call i64 @strlen(ptr noundef nonnull dereferenceable(1) %5) #9
  %7 = icmp ugt i64 %6, 4294967295
  br i1 %7, label %12, label %8

8:                                                ; preds = %3
  %9 = icmp ugt i64 %6, 65535
  br i1 %9, label %12, label %10

10:                                               ; preds = %8
  %11 = icmp ugt i64 %6, 255
  %. = select i1 %11, i64 2, i64 1
  br label %12

12:                                               ; preds = %10, %8, %3
  %.017 = phi i64 [ 8, %3 ], [ 4, %8 ], [ %., %10 ]
  %13 = load i32, ptr %2, align 8
  %14 = getelementptr inbounds i8, ptr %2, i64 4
  %15 = load i8, ptr %14, align 4
  %16 = getelementptr inbounds i8, ptr %2, i64 16
  %17 = load i32, ptr %16, align 8
  switch i32 %13, label %26 [
    i32 0, label %18
    i32 1, label %21
  ]

18:                                               ; preds = %12
  %19 = tail call zeroext i8 @H5F_sizeof_addr(ptr noundef %0) #7
  %20 = zext i8 %19 to i64
  br label %30

21:                                               ; preds = %12
  %22 = getelementptr inbounds i8, ptr %2, i64 32
  %23 = load ptr, ptr %22, align 8
  %24 = tail call i64 @strlen(ptr noundef nonnull dereferenceable(1) %23) #9
  %25 = add i64 %24, 2
  br label %30

26:                                               ; preds = %12
  %27 = getelementptr inbounds i8, ptr %2, i64 40
  %28 = load i64, ptr %27, align 8
  %29 = add i64 %28, 2
  br label %30

30:                                               ; preds = %26, %21, %18
  %.pn = phi i64 [ %29, %26 ], [ %25, %21 ], [ %20, %18 ]
  %.not.not = icmp eq i32 %13, 0
  %31 = select i1 %.not.not, i64 2, i64 3
  %32 = trunc i8 %15 to i1
  %33 = select i1 %32, i64 8, i64 0
  %.not = icmp ne i32 %17, 0
  %34 = zext i1 %.not to i64
  %35 = add i64 %.017, %6
  %36 = add i64 %35, %31
  %37 = add i64 %36, %33
  %38 = add i64 %37, %34
  %.0 = add i64 %38, %.pn
  ret i64 %.0
}